target datalayout = "e-m:e-p270:32:32-p271:32:32-p272:64:64-i64:64-i128:128-f80:128-n8:16:32:64-S128"
target triple = "x86_64-pc-linux-gnu"

; Function Attrs: mustprogress nounwind uwtable
define linkonce_odr void @_ZN18duckdb_fastpforlib8internal17unpack_single_outILh13ELh15EEENSt9enable_ifIXltplT_T0_Li32EEvE4typeEPKjPm(ptr noalias noundef %0, ptr noalias noundef %1) #0 comdat {
  %3 = alloca ptr, align 8
  %4 = alloca ptr, align 8
  store ptr %0, ptr %3, align 8, !tbaa !16
  store ptr %1, ptr %4, align 8, !tbaa !21
  %5 = load ptr, ptr %3, align 8, !tbaa !16
  %6 = load i32, ptr %5, align 4, !tbaa !18
  %7 = zext i32 %6 to i64
  %8 = lshr i64 %7, 15
  %9 = urem i64 %8, 8192
  %10 = load ptr, ptr %4, align 8, !tbaa !21
  store i64 %9, ptr %10, align 8, !tbaa !23
  ret void
}

; Function Attrs: mustprogress uwtable
define linkonce_odr void @_ZN18duckdb_fastpforlib8internal8UnrollerILt13ELt11EE6UnpackERrPKjPm(ptr noundef nonnull align 8 dereferenceable(8) %0, ptr noalias noundef %1) #2 comdat align 2 {
  %3 = alloca ptr, align 8
  %4 = alloca ptr, align 8
  store ptr %0, ptr %3, align 8, !tbaa !38
  store ptr %1, ptr %4, align 8, !tbaa !21
  %5 = load ptr, ptr %3, align 8, !tbaa !38
  %6 = load ptr, ptr %5, align 8, !tbaa !16
  %7 = load ptr, ptr %4, align 8, !tbaa !21
  %8 = getelementptr inbounds i64, ptr %7, i64 11
  call void @_ZN18duckdb_fastpforlib8internal17unpack_single_outILh13ELh15EEENSt9enable_ifIXltplT_T0_Li32EEvE4typeEPKjPm(ptr noundef %6, ptr noundef %8)
  %9 = load ptr, ptr %3, align 8, !tbaa !38
  %10 = load ptr, ptr %4, align 8, !tbaa !21
  call void @_ZN18duckdb_fastpforlib8internal8UnrollerILt13ELt12EE6UnpackERrPKjPm(ptr noundef nonnull align 8 dereferenceable(8) %9, ptr noundef %10)
  ret void
}

; Function Attrs: mustprogress nounwind uwtable
define linkonce_odr void @_ZN18duckdb_fastpforlib8internal17unpack_single_outILh13ELh2EEENSt9enable_ifIXltplT_T0_Li32EEvE4typeEPKjPm(ptr noalias noundef %0, ptr noalias noundef %1) #0 comdat {
  %3 = alloca ptr, align 8
  %4 = alloca ptr, align 8
  store ptr %0, ptr %3, align 8, !tbaa !16
  store ptr %1, ptr %4, align 8, !tbaa !21
  %5 = load ptr, ptr %3, align 8, !tbaa !16
  %6 = load i32, ptr %5, align 4, !tbaa !18
  %7 = zext i32 %6 to i64
  %8 = lshr i64 %7, 2
  %9 = urem i64 %8, 8192
  %10 = load ptr, ptr %4, align 8, !tbaa !21
  store i64 %9, ptr %10, align 8, !tbaa !23
  ret void
}

; Function Attrs: mustprogress uwtable
define linkonce_odr void @_ZN18duckdb_fastpforlib8internal8UnrollerILt13ELt10EE6UnpackERrPKjPm(ptr noundef nonnull align 8 dereferenceable(8) %0, ptr noalias noundef %1) #2 comdat align 2 {
  %3 = alloca ptr, align 8
  %4 = alloca ptr, align 8
  store ptr %0, ptr %3, align 8, !tbaa !38
  store ptr %1, ptr %4, align 8, !tbaa !21
  %5 = load ptr, ptr %3, align 8, !tbaa !38
  %6 = load ptr, ptr %5, align 8, !tbaa !16
  %7 = load ptr, ptr %4, align 8, !tbaa !21
  %8 = getelementptr inbounds i64, ptr %7, i64 10
  call void @_ZN18duckdb_fastpforlib8internal17unpack_single_outILh13ELh2EEENSt9enable_ifIXltplT_T0_Li32EEvE4typeEPKjPm(ptr noundef %6, ptr noundef %8)
  %9 = load ptr, ptr %3, align 8, !tbaa !38
  %10 = load ptr, ptr %4, align 8, !tbaa !21
  call void @_ZN18duckdb_fastpforlib8internal8UnrollerILt13ELt11EE6UnpackERrPKjPm(ptr noundef nonnull align 8 dereferenceable(8) %9, ptr noundef %10)
  ret void
}

; Function Attrs: mustprogress nounwind uwtable
define linkonce_odr void @_ZN18duckdb_fastpforlib8internal17unpack_single_outILh13ELh21EEENSt9enable_ifIXaageplT_T0_Li32EltplT_T0_Li64EEvE4typeERrPKjPm(ptr noundef nonnull align 8 dereferenceable(8) %0, ptr noalias noundef %1) #0 comdat {
  %3 = alloca ptr, align 8
  %4 = alloca ptr, align 8
  store ptr %0, ptr %3, align 8, !tbaa !38
  store ptr %1, ptr %4, align 8, !tbaa !21
  %5 = load ptr, ptr %3, align 8, !tbaa !38
  %6 = load ptr, ptr %5, align 8, !tbaa !16
  %7 = load i32, ptr %6, align 4, !tbaa !18
  %8 = zext i32 %7 to i64
  %9 = lshr i64 %8, 21
  %10 = load ptr, ptr %4, align 8, !tbaa !21
  store i64 %9, ptr %10, align 8, !tbaa !23
  %11 = load ptr, ptr %3, align 8, !tbaa !38
  %12 = load ptr, ptr %11, align 8, !tbaa !16
  %13 = getelementptr inbounds nuw i32, ptr %12, i32 1
  store ptr %13, ptr %11, align 8, !tbaa !16
  %14 = load ptr, ptr %3, align 8, !tbaa !38
  %15 = load ptr, ptr %14, align 8, !tbaa !16
  %16 = load i32, ptr %15, align 4, !tbaa !18
  %17 = urem i32 %16, 4
  %18 = zext i32 %17 to i64
  %19 = shl i64 %18, 11
  %20 = load ptr, ptr %4, align 8, !tbaa !21
  %21 = load i64, ptr %20, align 8, !tbaa !23
  %22 = or i64 %21, %19
  store i64 %22, ptr %20, align 8, !tbaa !23
  ret void
}

; Function Attrs: mustprogress uwtable
define linkonce_odr void @_ZN18duckdb_fastpforlib8internal8UnrollerILt13ELt9EE6UnpackERrPKjPm(ptr noundef nonnull align 8 dereferenceable(8) %0, ptr noalias noundef %1) #2 comdat align 2 {
  %3 = alloca ptr, align 8
  %4 = alloca ptr, align 8
  store ptr %0, ptr %3, align 8, !tbaa !38
  store ptr %1, ptr %4, align 8, !tbaa !21
  %5 = load ptr, ptr %3, align 8, !tbaa !38
  %6 = load ptr, ptr %4, align 8, !tbaa !21
  %7 = getelementptr inbounds i64, ptr %6, i64 9
  call void @_ZN18duckdb_fastpforlib8internal17unpack_single_outILh13ELh21EEENSt9enable_ifIXaageplT_T0_Li32EltplT_T0_Li64EEvE4typeERrPKjPm(ptr noundef nonnull align 8 dereferenceable(8) %5, ptr noundef %7)
  %8 = load ptr, ptr %3, align 8, !tbaa !38
  %9 = load ptr, ptr %4, align 8, !tbaa !21
  call void @_ZN18duckdb_fastpforlib8internal8UnrollerILt13ELt10EE6UnpackERrPKjPm(ptr noundef nonnull align 8 dereferenceable(8) %8, ptr noundef %9)
  ret void
}

; Function Attrs: mustprogress nounwind uwtable
define linkonce_odr void @_ZN18duckdb_fastpforlib8internal17unpack_single_outILh13ELh8EEENSt9enable_ifIXltplT_T0_Li32EEvE4typeEPKjPm(ptr noalias noundef %0, ptr noalias noundef %1) #0 comdat {
  %3 = alloca ptr, align 8
  %4 = alloca ptr, align 8
  store ptr %0, ptr %3, align 8, !tbaa !16
  store ptr %1, ptr %4, align 8, !tbaa !21
  %5 = load ptr, ptr %3, align 8, !tbaa !16
  %6 = load i32, ptr %5, align 4, !tbaa !18
  %7 = zext i32 %6 to i64
  %8 = lshr i64 %7, 8
  %9 = urem i64 %8, 8192
  %10 = load ptr, ptr %4, align 8, !tbaa !21
  store i64 %9, ptr %10, align 8, !tbaa !23
  ret void
}

; Function Attrs: mustprogress uwtable
define linkonce_odr void @_ZN18duckdb_fastpforlib8internal8UnrollerILt13ELt8EE6UnpackERrPKjPm(ptr noundef nonnull align 8 dereferenceable(8) %0, ptr noalias noundef %1) #2 comdat align 2 {
  %3 = alloca ptr, align 8
  %4 = alloca ptr, align 8
  store ptr %0, ptr %3, align 8, !tbaa !38
  store ptr %1, ptr %4, align 8, !tbaa !21
  %5 = load ptr, ptr %3, align 8, !tbaa !38
  %6 = load ptr, ptr %5, align 8, !tbaa !16
  %7 = load ptr, ptr %4, align 8, !tbaa !21
  %8 = getelementptr inbounds i64, ptr %7, i64 8
  call void @_ZN18duckdb_fastpforlib8internal17unpack_single_outILh13ELh8EEENSt9enable_ifIXltplT_T0_Li32EEvE4typeEPKjPm(ptr noundef %6, ptr noundef %8)
  %9 = load ptr, ptr %3, align 8, !tbaa !38
  %10 = load ptr, ptr %4, align 8, !tbaa !21
  call void @_ZN18duckdb_fastpforlib8internal8UnrollerILt13ELt9EE6UnpackERrPKjPm(ptr noundef nonnull align 8 dereferenceable(8) %9, ptr noundef %10)
  ret void
}

; Function Attrs: mustprogress nounwind uwtable
define linkonce_odr void @_ZN18duckdb_fastpforlib8internal17unpack_single_outILh13ELh27EEENSt9enable_ifIXaageplT_T0_Li32EltplT_T0_Li64EEvE4typeERrPKjPm(ptr noundef nonnull align 8 dereferenceable(8) %0, ptr noalias noundef %1) #0 comdat {
  %3 = alloca ptr, align 8
  %4 = alloca ptr, align 8
  store ptr %0, ptr %3, align 8, !tbaa !38
  store ptr %1, ptr %4, align 8, !tbaa !21
  %5 = load ptr, ptr %3, align 8, !tbaa !38
  %6 = load ptr, ptr %5, align 8, !tbaa !16
  %7 = load i32, ptr %6, align 4, !tbaa !18
  %8 = zext i32 %7 to i64
  %9 = lshr i64 %8, 27
  %10 = load ptr, ptr %4, align 8, !tbaa !21
  store i64 %9, ptr %10, align 8, !tbaa !23
  %11 = load ptr, ptr %3, align 8, !tbaa !38
  %12 = load ptr, ptr %11, align 8, !tbaa !16
  %13 = getelementptr inbounds nuw i32, ptr %12, i32 1
  store ptr %13, ptr %11, align 8, !tbaa !16
  %14 = load ptr, ptr %3, align 8, !tbaa !38
  %15 = load ptr, ptr %14, align 8, !tbaa !16
  %16 = load i32, ptr %15, align 4, !tbaa !18
  %17 = urem i32 %16, 256
  %18 = zext i32 %17 to i64
  %19 = shl i64 %18, 5
  %20 = load ptr, ptr %4, align 8, !tbaa !21
  %21 = load i64, ptr %20, align 8, !tbaa !23
  %22 = or i64 %21, %19
  store i64 %22, ptr %20, align 8, !tbaa !23
  ret void
}

; Function Attrs: mustprogress uwtable
define linkonce_odr void @_ZN18duckdb_fastpforlib8internal8UnrollerILt13ELt7EE6UnpackERrPKjPm(ptr noundef nonnull align 8 dereferenceable(8) %0, ptr noalias noundef %1) #2 comdat align 2 {
  %3 = alloca ptr, align 8
  %4 = alloca ptr, align 8
  store ptr %0, ptr %3, align 8, !tbaa !38
  store ptr %1, ptr %4, align 8, !tbaa !21
  %5 = load ptr, ptr %3, align 8, !tbaa !38
  %6 = load ptr, ptr %4, align 8, !tbaa !21
  %7 = getelementptr inbounds i64, ptr %6, i64 7
  call void @_ZN18duckdb_fastpforlib8internal17unpack_single_outILh13ELh27EEENSt9enable_ifIXaageplT_T0_Li32EltplT_T0_Li64EEvE4typeERrPKjPm(ptr noundef nonnull align 8 dereferenceable(8) %5, ptr noundef %7)
  %8 = load ptr, ptr %3, align 8, !tbaa !38
  %9 = load ptr, ptr %4, align 8, !tbaa !21
  call void @_ZN18duckdb_fastpforlib8internal8UnrollerILt13ELt8EE6UnpackERrPKjPm(ptr noundef nonnull align 8 dereferenceable(8) %8, ptr noundef %9)
  ret void
}

; Function Attrs: mustprogress nounwind uwtable
define linkonce_odr void @_ZN18duckdb_fastpforlib8internal17unpack_single_outILh13ELh14EEENSt9enable_ifIXltplT_T0_Li32EEvE4typeEPKjPm(ptr noalias noundef %0, ptr noalias noundef %1) #0 comdat {
  %3 = alloca ptr, align 8
  %4 = alloca ptr, align 8
  store ptr %0, ptr %3, align 8, !tbaa !16
  store ptr %1, ptr %4, align 8, !tbaa !21
  %5 = load ptr, ptr %3, align 8, !tbaa !16
  %6 = load i32, ptr %5, align 4, !tbaa !18
  %7 = zext i32 %6 to i64
  %8 = lshr i64 %7, 14
  %9 = urem i64 %8, 8192
  %10 = load ptr, ptr %4, align 8, !tbaa !21
  store i64 %9, ptr %10, align 8, !tbaa !23
  ret void
}

; Function Attrs: mustprogress uwtable
define linkonce_odr void @_ZN18duckdb_fastpforlib8internal8UnrollerILt13ELt6EE6UnpackERrPKjPm(ptr noundef nonnull align 8 dereferenceable(8) %0, ptr noalias noundef %1) #2 comdat align 2 {
  %3 = alloca ptr, align 8
  %4 = alloca ptr, align 8
  store ptr %0, ptr %3, align 8, !tbaa !38
  store ptr %1, ptr %4, align 8, !tbaa !21
  %5 = load ptr, ptr %3, align 8, !tbaa !38
  %6 = load ptr, ptr %5, align 8, !tbaa !16
  %7 = load ptr, ptr %4, align 8, !tbaa !21
  %8 = getelementptr inbounds i64, ptr %7, i64 6
  call void @_ZN18duckdb_fastpforlib8internal17unpack_single_outILh13ELh14EEENSt9enable_ifIXltplT_T0_Li32EEvE4typeEPKjPm(ptr noundef %6, ptr noundef %8)
  %9 = load ptr, ptr %3, align 8, !tbaa !38
  %10 = load ptr, ptr %4, align 8, !tbaa !21
  call void @_ZN18duckdb_fastpforlib8internal8UnrollerILt13ELt7EE6UnpackERrPKjPm(ptr noundef nonnull align 8 dereferenceable(8) %9, ptr noundef %10)
  ret void
}

; Function Attrs: mustprogress nounwind uwtable
define linkonce_odr void @_ZN18duckdb_fastpforlib8internal17unpack_single_outILh13ELh1EEENSt9enable_ifIXltplT_T0_Li32EEvE4typeEPKjPm(ptr noalias noundef %0, ptr noalias noundef %1) #0 comdat {
  %3 = alloca ptr, align 8
  %4 = alloca ptr, align 8
  store ptr %0, ptr %3, align 8, !tbaa !16
  store ptr %1, ptr %4, align 8, !tbaa !21
  %5 = load ptr, ptr %3, align 8, !tbaa !16
  %6 = load i32, ptr %5, align 4, !tbaa !18
  %7 = zext i32 %6 to i64
  %8 = lshr i64 %7, 1
  %9 = urem i64 %8, 8192
  %10 = load ptr, ptr %4, align 8, !tbaa !21
  store i64 %9, ptr %10, align 8, !tbaa !23
  ret void
}

; Function Attrs: mustprogress uwtable
define linkonce_odr void @_ZN18duckdb_fastpforlib8internal8UnrollerILt13ELt5EE6UnpackERrPKjPm(ptr noundef nonnull align 8 dereferenceable(8) %0, ptr noalias noundef %1) #2 comdat align 2 {
  %3 = alloca ptr, align 8
  %4 = alloca ptr, align 8
  store ptr %0, ptr %3, align 8, !tbaa !38
  store ptr %1, ptr %4, align 8, !tbaa !21
  %5 = load ptr, ptr %3, align 8, !tbaa !38
  %6 = load ptr, ptr %5, align 8, !tbaa !16
  %7 = load ptr, ptr %4, align 8, !tbaa !21
  %8 = getelementptr inbounds i64, ptr %7, i64 5
  call void @_ZN18duckdb_fastpforlib8internal17unpack_single_outILh13ELh1EEENSt9enable_ifIXltplT_T0_Li32EEvE4typeEPKjPm(ptr noundef %6, ptr noundef %8)
  %9 = load ptr, ptr %3, align 8, !tbaa !38
  %10 = load ptr, ptr %4, align 8, !tbaa !21
  call void @_ZN18duckdb_fastpforlib8internal8UnrollerILt13ELt6EE6UnpackERrPKjPm(ptr noundef nonnull align 8 dereferenceable(8) %9, ptr noundef %10)
  ret void
}

; Function Attrs: mustprogress nounwind uwtable
define linkonce_odr void @_ZN18duckdb_fastpforlib8internal17unpack_single_outILh13ELh20EEENSt9enable_ifIXaageplT_T0_Li32EltplT_T0_Li64EEvE4typeERrPKjPm(ptr noundef nonnull align 8 dereferenceable(8) %0, ptr noalias noundef %1) #0 comdat {
  %3 = alloca ptr, align 8
  %4 = alloca ptr, align 8
  store ptr %0, ptr %3, align 8, !tbaa !38
  store ptr %1, ptr %4, align 8, !tbaa !21
  %5 = load ptr, ptr %3, align 8, !tbaa !38
  %6 = load ptr, ptr %5, align 8, !tbaa !16
  %7 = load i32, ptr %6, align 4, !tbaa !18
  %8 = zext i32 %7 to i64
  %9 = lshr i64 %8, 20
  %10 = load ptr, ptr %4, align 8, !tbaa !21
  store i64 %9, ptr %10, align 8, !tbaa !23
  %11 = load ptr, ptr %3, align 8, !tbaa !38
  %12 = load ptr, ptr %11, align 8, !tbaa !16
  %13 = getelementptr inbounds nuw i32, ptr %12, i32 1
  store ptr %13, ptr %11, align 8, !tbaa !16
  %14 = load ptr, ptr %3, align 8, !tbaa !38
  %15 = load ptr, ptr %14, align 8, !tbaa !16
  %16 = load i32, ptr %15, align 4, !tbaa !18
  %17 = urem i32 %16, 2
  %18 = zext i32 %17 to i64
  %19 = shl i64 %18, 12
  %20 = load ptr, ptr %4, align 8, !tbaa !21
  %21 = load i64, ptr %20, align 8, !tbaa !23
  %22 = or i64 %21, %19
  store i64 %22, ptr %20, align 8, !tbaa !23
  ret void
}

; Function Attrs: mustprogress uwtable
define linkonce_odr void @_ZN18duckdb_fastpforlib8internal8UnrollerILt13ELt4EE6UnpackERrPKjPm(ptr noundef nonnull align 8 dereferenceable(8) %0, ptr noalias noundef %1) #2 comdat align 2 {
  %3 = alloca ptr, align 8
  %4 = alloca ptr, align 8
  store ptr %0, ptr %3, align 8, !tbaa !38
  store ptr %1, ptr %4, align 8, !tbaa !21
  %5 = load ptr, ptr %3, align 8, !tbaa !38
  %6 = load ptr, ptr %4, align 8, !tbaa !21
  %7 = getelementptr inbounds i64, ptr %6, i64 4
  call void @_ZN18duckdb_fastpforlib8internal17unpack_single_outILh13ELh20EEENSt9enable_ifIXaageplT_T0_Li32EltplT_T0_Li64EEvE4typeERrPKjPm(ptr noundef nonnull align 8 dereferenceable(8) %5, ptr noundef %7)
  %8 = load ptr, ptr %3, align 8, !tbaa !38
  %9 = load ptr, ptr %4, align 8, !tbaa !21
  call void @_ZN18duckdb_fastpforlib8internal8UnrollerILt13ELt5EE6UnpackERrPKjPm(ptr noundef nonnull align 8 dereferenceable(8) %8, ptr noundef %9)
  ret void
}

; Function Attrs: mustprogress nounwind uwtable
define linkonce_odr void @_ZN18duckdb_fastpforlib8internal17unpack_single_outILh13ELh7EEENSt9enable_ifIXltplT_T0_Li32EEvE4typeEPKjPm(ptr noalias noundef %0, ptr noalias noundef %1) #0 comdat {
  %3 = alloca ptr, align 8
  %4 = alloca ptr, align 8
  store ptr %0, ptr %3, align 8, !tbaa !16
  store ptr %1, ptr %4, align 8, !tbaa !21
  %5 = load ptr, ptr %3, align 8, !tbaa !16
  %6 = load i32, ptr %5, align 4, !tbaa !18
  %7 = zext i32 %6 to i64
  %8 = lshr i64 %7, 7
  %9 = urem i64 %8, 8192
  %10 = load ptr, ptr %4, align 8, !tbaa !21
  store i64 %9, ptr %10, align 8, !tbaa !23
  ret void
}

; Function Attrs: mustprogress uwtable
define linkonce_odr void @_ZN18duckdb_fastpforlib8internal8UnrollerILt13ELt3EE6UnpackERrPKjPm(ptr noundef nonnull align 8 dereferenceable(8) %0, ptr noalias noundef %1) #2 comdat align 2 {
  %3 = alloca ptr, align 8
  %4 = alloca ptr, align 8
  store ptr %0, ptr %3, align 8, !tbaa !38
  store ptr %1, ptr %4, align 8, !tbaa !21
  %5 = load ptr, ptr %3, align 8, !tbaa !38
  %6 = load ptr, ptr %5, align 8, !tbaa !16
  %7 = load ptr, ptr %4, align 8, !tbaa !21
  %8 = getelementptr inbounds i64, ptr %7, i64 3
  call void @_ZN18duckdb_fastpforlib8internal17unpack_single_outILh13ELh7EEENSt9enable_ifIXltplT_T0_Li32EEvE4typeEPKjPm(ptr noundef %6, ptr noundef %8)
  %9 = load ptr, ptr %3, align 8, !tbaa !38
  %10 = load ptr, ptr %4, align 8, !tbaa !21
  call void @_ZN18duckdb_fastpforlib8internal8UnrollerILt13ELt4EE6UnpackERrPKjPm(ptr noundef nonnull align 8 dereferenceable(8) %9, ptr noundef %10)
  ret void
}

; Function Attrs: mustprogress nounwind uwtable
define linkonce_odr void @_ZN18duckdb_fastpforlib8internal17unpack_single_outILh13ELh26EEENSt9enable_ifIXaageplT_T0_Li32EltplT_T0_Li64EEvE4typeERrPKjPm(ptr noundef nonnull align 8 dereferenceable(8) %0, ptr noalias noundef %1) #0 comdat {
  %3 = alloca ptr, align 8
  %4 = alloca ptr, align 8
  store ptr %0, ptr %3, align 8, !tbaa !38
  store ptr %1, ptr %4, align 8, !tbaa !21
  %5 = load ptr, ptr %3, align 8, !tbaa !38
  %6 = load ptr, ptr %5, align 8, !tbaa !16
  %7 = load i32, ptr %6, align 4, !tbaa !18
  %8 = zext i32 %7 to i64
  %9 = lshr i64 %8, 26
  %10 = load ptr, ptr %4, align 8, !tbaa !21
  store i64 %9, ptr %10, align 8, !tbaa !23
  %11 = load ptr, ptr %3, align 8, !tbaa !38
  %12 = load ptr, ptr %11, align 8, !tbaa !16
  %13 = getelementptr inbounds nuw i32, ptr %12, i32 1
  store ptr %13, ptr %11, align 8, !tbaa !16
  %14 = load ptr, ptr %3, align 8, !tbaa !38
  %15 = load ptr, ptr %14, align 8, !tbaa !16
  %16 = load i32, ptr %15, align 4, !tbaa !18
  %17 = urem i32 %16, 128
  %18 = zext i32 %17 to i64
  %19 = shl i64 %18, 6
  %20 = load ptr, ptr %4, align 8, !tbaa !21
  %21 = load i64, ptr %20, align 8, !tbaa !23
  %22 = or i64 %21, %19
  store i64 %22, ptr %20, align 8, !tbaa !23
  ret void
}

; Function Attrs: mustprogress uwtable
define linkonce_odr void @_ZN18duckdb_fastpforlib8internal8UnrollerILt13ELt2EE6UnpackERrPKjPm(ptr noundef nonnull align 8 dereferenceable(8) %0, ptr noalias noundef %1) #2 comdat align 2 {
  %3 = alloca ptr, align 8
  %4 = alloca ptr, align 8
  store ptr %0, ptr %3, align 8, !tbaa !38
  store ptr %1, ptr %4, align 8, !tbaa !21
  %5 = load ptr, ptr %3, align 8, !tbaa !38
  %6 = load ptr, ptr %4, align 8, !tbaa !21
  %7 = getelementptr inbounds i64, ptr %6, i64 2
  call void @_ZN18duckdb_fastpforlib8internal17unpack_single_outILh13ELh26EEENSt9enable_ifIXaageplT_T0_Li32EltplT_T0_Li64EEvE4typeERrPKjPm(ptr noundef nonnull align 8 dereferenceable(8) %5, ptr noundef %7)
  %8 = load ptr, ptr %3, align 8, !tbaa !38
  %9 = load ptr, ptr %4, align 8, !tbaa !21
  call void @_ZN18duckdb_fastpforlib8internal8UnrollerILt13ELt3EE6UnpackERrPKjPm(ptr noundef nonnull align 8 dereferenceable(8) %8, ptr noundef %9)
  ret void
}

; Function Attrs: mustprogress nounwind uwtable
define linkonce_odr void @_ZN18duckdb_fastpforlib8internal17unpack_single_outILh13ELh13EEENSt9enable_ifIXltplT_T0_Li32EEvE4typeEPKjPm(ptr noalias noundef %0, ptr noalias noundef %1) #0 comdat {
  %3 = alloca ptr, align 8
  %4 = alloca ptr, align 8
  store ptr %0, ptr %3, align 8, !tbaa !16
  store ptr %1, ptr %4, align 8, !tbaa !21
  %5 = load ptr, ptr %3, align 8, !tbaa !16
  %6 = load i32, ptr %5, align 4, !tbaa !18
  %7 = zext i32 %6 to i64
  %8 = lshr i64 %7, 13
  %9 = urem i64 %8, 8192
  %10 = load ptr, ptr %4, align 8, !tbaa !21
  store i64 %9, ptr %10, align 8, !tbaa !23
  ret void
}

; Function Attrs: mustprogress uwtable
define linkonce_odr void @_ZN18duckdb_fastpforlib8internal8UnrollerILt13ELt1EE6UnpackERrPKjPm(ptr noundef nonnull align 8 dereferenceable(8) %0, ptr noalias noundef %1) #2 comdat align 2 {
  %3 = alloca ptr, align 8
  %4 = alloca ptr, align 8
  store ptr %0, ptr %3, align 8, !tbaa !38
  store ptr %1, ptr %4, align 8, !tbaa !21
  %5 = load ptr, ptr %3, align 8, !tbaa !38
  %6 = load ptr, ptr %5, align 8, !tbaa !16
  %7 = load ptr, ptr %4, align 8, !tbaa !21
  %8 = getelementptr inbounds i64, ptr %7, i64 1
  call void @_ZN18duckdb_fastpforlib8internal17unpack_single_outILh13ELh13EEENSt9enable_ifIXltplT_T0_Li32EEvE4typeEPKjPm(ptr noundef %6, ptr noundef %8)
  %9 = load ptr, ptr %3, align 8, !tbaa !38
  %10 = load ptr, ptr %4, align 8, !tbaa !21
  call void @_ZN18duckdb_fastpforlib8internal8UnrollerILt13ELt2EE6UnpackERrPKjPm(ptr noundef nonnull align 8 dereferenceable(8) %9, ptr noundef %10)
  ret void
}

; Function Attrs: mustprogress nounwind uwtable
define linkonce_odr void @_ZN18duckdb_fastpforlib8internal17unpack_single_outILh13ELh0EEENSt9enable_ifIXltplT_T0_Li32EEvE4typeEPKjPm(ptr noalias noundef %0, ptr noalias noundef %1) #0 comdat {
  %3 = alloca ptr, align 8
  %4 = alloca ptr, align 8
  store ptr %0, ptr %3, align 8, !tbaa !16
  store ptr %1, ptr %4, align 8, !tbaa !21
  %5 = load ptr, ptr %3, align 8, !tbaa !16
  %6 = load i32, ptr %5, align 4, !tbaa !18
  %7 = zext i32 %6 to i64
  %8 = lshr i64 %7, 0
  %9 = urem i64 %8, 8192
  %10 = load ptr, ptr %4, align 8, !tbaa !21
  store i64 %9, ptr %10, align 8, !tbaa !23
  ret void
}

; Function Attrs: mustprogress uwtable
define linkonce_odr void @_ZN18duckdb_fastpforlib8internal8UnrollerILt13ELt0EE6UnpackERrPKjPm(ptr noundef nonnull align 8 dereferenceable(8) %0, ptr noalias noundef %1) #2 comdat align 2 {
  %3 = alloca ptr, align 8
  %4 = alloca ptr, align 8
  store ptr %0, ptr %3, align 8, !tbaa !38
  store ptr %1, ptr %4, align 8, !tbaa !21
  %5 = load ptr, ptr %3, align 8, !tbaa !38
  %6 = load ptr, ptr %5, align 8, !tbaa !16
  %7 = load ptr, ptr %4, align 8, !tbaa !21
  %8 = getelementptr inbounds i64, ptr %7, i64 0
  call void @_ZN18duckdb_fastpforlib8internal17unpack_single_outILh13ELh0EEENSt9enable_ifIXltplT_T0_Li32EEvE4typeEPKjPm(ptr noundef %6, ptr noundef %8)
  %9 = load ptr, ptr %3, align 8, !tbaa !38
  %10 = load ptr, ptr %4, align 8, !tbaa !21
  call void @_ZN18duckdb_fastpforlib8internal8UnrollerILt13ELt1EE6UnpackERrPKjPm(ptr noundef nonnull align 8 dereferenceable(8) %9, ptr noundef %10)
  ret void
}

; Function Attrs: mustprogress uwtable
define void @_ZN18duckdb_fastpforlib8internal14__fastunpack13EPKjPm(ptr noalias noundef %0, ptr noalias noundef %1) #2 {
  %3 = alloca ptr, align 8
  %4 = alloca ptr, align 8
  store ptr %0, ptr %3, align 8, !tbaa !16
  store ptr %1, ptr %4, align 8, !tbaa !21
  %5 = load ptr, ptr %4, align 8, !tbaa !21
  call void @_ZN18duckdb_fastpforlib8internal8UnrollerILt13ELt0EE6UnpackERrPKjPm(ptr noundef nonnull align 8 dereferenceable(8) %3, ptr noundef %5)
  ret void
}