; Function Attrs: mustprogress uwtable
define void @_ZN18duckdb_fastpforlib8internal14__fastunpack13EPKjPm(ptr noalias noundef %0, ptr noalias noundef initializes((0, 96)) %1) local_unnamed_addr #5 {
  %3 = alloca ptr, align 8
  tail call void @llvm.experimental.noalias.scope.decl(metadata !5892)
  tail call void @llvm.experimental.noalias.scope.decl(metadata !5895)
  tail call void @llvm.experimental.noalias.scope.decl(metadata !5898)
  %4 = load i32, ptr %0, align 4, !tbaa !7, !alias.scope !5895, !noalias !5900
  %5 = and i32 %4, 8191
  %6 = zext nneg i32 %5 to i64
  store i64 %6, ptr %1, align 8, !tbaa !9, !alias.scope !5900, !noalias !5895
  tail call void @llvm.experimental.noalias.scope.decl(metadata !5901)
  %7 = getelementptr inbounds nuw i8, ptr %1, i64 8
  %8 = lshr i32 %4, 13
  %9 = and i32 %8, 8191
  %10 = zext nneg i32 %9 to i64
  store i64 %10, ptr %7, align 8, !tbaa !9, !alias.scope !5904, !noalias !5907
  tail call void @llvm.experimental.noalias.scope.decl(metadata !5909)
  %11 = getelementptr inbounds nuw i8, ptr %1, i64 16
  tail call void @llvm.experimental.noalias.scope.decl(metadata !5912)
  %12 = lshr i32 %4, 26
  %13 = getelementptr inbounds nuw i8, ptr %0, i64 4
  %14 = load i32, ptr %13, align 4, !tbaa !7, !noalias !5915
  %15 = shl i32 %14, 6
  %16 = and i32 %15, 8128
  %17 = or disjoint i32 %16, %12
  %18 = zext nneg i32 %17 to i64
  store i64 %18, ptr %11, align 8, !tbaa !9, !alias.scope !5915
  tail call void @llvm.experimental.noalias.scope.decl(metadata !5916)
  %19 = getelementptr inbounds nuw i8, ptr %1, i64 24
  %20 = lshr i32 %14, 7
  %21 = and i32 %20, 8191
  %22 = zext nneg i32 %21 to i64
  store i64 %22, ptr %19, align 8, !tbaa !9, !alias.scope !5919, !noalias !5922
  tail call void @llvm.experimental.noalias.scope.decl(metadata !5924)
  %23 = getelementptr inbounds nuw i8, ptr %1, i64 32
  tail call void @llvm.experimental.noalias.scope.decl(metadata !5927)
  %24 = lshr i32 %14, 20
  %25 = getelementptr inbounds nuw i8, ptr %0, i64 8
  %26 = load i32, ptr %25, align 4, !tbaa !7, !noalias !5930
  %27 = shl i32 %26, 12
  %28 = and i32 %27, 4096
  %29 = or disjoint i32 %28, %24
  %30 = zext nneg i32 %29 to i64
  store i64 %30, ptr %23, align 8, !tbaa !9, !alias.scope !5930
  tail call void @llvm.experimental.noalias.scope.decl(metadata !5931)
  %31 = getelementptr inbounds nuw i8, ptr %1, i64 40
  %32 = lshr i32 %26, 1
  %33 = and i32 %32, 8191
  %34 = zext nneg i32 %33 to i64
  store i64 %34, ptr %31, align 8, !tbaa !9, !alias.scope !5934, !noalias !5937
  tail call void @llvm.experimental.noalias.scope.decl(metadata !5939)
  %35 = getelementptr inbounds nuw i8, ptr %1, i64 48
  %36 = lshr i32 %26, 14
  %37 = and i32 %36, 8191
  %38 = zext nneg i32 %37 to i64
  store i64 %38, ptr %35, align 8, !tbaa !9, !alias.scope !5942, !noalias !5945
  tail call void @llvm.experimental.noalias.scope.decl(metadata !5947)
  %39 = getelementptr inbounds nuw i8, ptr %1, i64 56
  tail call void @llvm.experimental.noalias.scope.decl(metadata !5950)
  %40 = lshr i32 %26, 27
  %41 = getelementptr inbounds nuw i8, ptr %0, i64 12
  %42 = load i32, ptr %41, align 4, !tbaa !7, !noalias !5953
  %43 = shl i32 %42, 5
  %44 = and i32 %43, 8160
  %45 = or disjoint i32 %44, %40
  %46 = zext nneg i32 %45 to i64
  store i64 %46, ptr %39, align 8, !tbaa !9, !alias.scope !5953
  tail call void @llvm.experimental.noalias.scope.decl(metadata !5954)
  %47 = getelementptr inbounds nuw i8, ptr %1, i64 64
  %48 = lshr i32 %42, 8
  %49 = and i32 %48, 8191
  %50 = zext nneg i32 %49 to i64
  store i64 %50, ptr %47, align 8, !tbaa !9, !alias.scope !5957, !noalias !5960
  tail call void @llvm.experimental.noalias.scope.decl(metadata !5962)
  %51 = getelementptr inbounds nuw i8, ptr %1, i64 72
  tail call void @llvm.experimental.noalias.scope.decl(metadata !5965)
  %52 = lshr i32 %42, 21
  %53 = getelementptr inbounds nuw i8, ptr %0, i64 16
  store ptr %53, ptr %3, align 8, !tbaa !1879, !noalias !5968
  %54 = load i32, ptr %53, align 4, !tbaa !7, !noalias !5968
  %55 = shl i32 %54, 11
  %56 = and i32 %55, 6144
  %57 = or disjoint i32 %56, %52
  %58 = zext nneg i32 %57 to i64
  store i64 %58, ptr %51, align 8, !tbaa !9, !alias.scope !5968
  %59 = getelementptr inbounds nuw i8, ptr %1, i64 80
  %60 = lshr i32 %54, 2
  %61 = and i32 %60, 8191
  %62 = zext nneg i32 %61 to i64
  store i64 %62, ptr %59, align 8, !tbaa !9, !alias.scope !5969, !noalias !5974
  %63 = getelementptr inbounds nuw i8, ptr %1, i64 88
  %64 = lshr i32 %54, 15
  %65 = and i32 %64, 8191
  %66 = zext nneg i32 %65 to i64
  store i64 %66, ptr %63, align 8, !tbaa !9, !alias.scope !5976, !noalias !5981
  call void @_ZN18duckdb_fastpforlib8internal8UnrollerILt13ELt12EE6UnpackERrPKjPm(ptr noundef nonnull align 8 dereferenceable(8) %3, ptr noundef nonnull %1)
  ret void
}